target datalayout = "e-m:e-p270:32:32-p271:32:32-p272:64:64-i64:64-i128:128-f80:128-n8:16:32:64-S128"
target triple = "x86_64-unknown-linux-gnu"

%"class.std::__shared_count" = type { ptr }
%"class.std::vector" = type { %"struct.std::_Vector_base" }
%"struct.std::_Vector_base" = type { %"struct.std::_Vector_base<facebook::velox::TypeParameter, std::allocator<facebook::velox::TypeParameter>>::_Vector_impl" }
%"struct.std::_Vector_base<facebook::velox::TypeParameter, std::allocator<facebook::velox::TypeParameter>>::_Vector_impl" = type { %"struct.std::_Vector_base<facebook::velox::TypeParameter, std::allocator<facebook::velox::TypeParameter>>::_Vector_impl_data" }
%"struct.std::_Vector_base<facebook::velox::TypeParameter, std::allocator<facebook::velox::TypeParameter>>::_Vector_impl_data" = type { ptr, ptr, ptr }
%"struct.std::pair.34" = type { i32, i32 }
%"class.facebook::velox::DecimalType" = type { %"class.facebook::velox::ScalarType.base", %"class.std::vector" }
%"class.facebook::velox::ScalarType.base" = type { %"class.facebook::velox::TypeBase.base" }
%"class.facebook::velox::TypeBase.base" = type { %"class.facebook::velox::Type.base" }
%"class.facebook::velox::Type.base" = type <{ %"class.facebook::velox::Tree", %"class.facebook::velox::ISerializable", i8 }>
%"class.facebook::velox::Tree" = type { ptr }
%"class.facebook::velox::ISerializable" = type { ptr }
%"struct.facebook::velox::TypeParameter" = type { i32, %"class.std::shared_ptr", %"class.std::optional.132" }
%"class.std::shared_ptr" = type { %"class.std::__shared_ptr" }
%"class.std::__shared_ptr" = type { ptr, %"class.std::__shared_count" }
%"class.std::optional.132" = type { %"struct.std::_Optional_base.133" }
%"struct.std::_Optional_base.133" = type { %"struct.std::_Optional_payload.135" }
%"struct.std::_Optional_payload.135" = type { %"struct.std::_Optional_payload_base.base.137", [7 x i8] }
%"struct.std::_Optional_payload_base.base.137" = type <{ %"union.std::_Optional_payload_base<long>::_Storage", i8 }>
%"union.std::_Optional_payload_base<long>::_Storage" = type { i64 }
%"class.facebook::velox::DecimalType.39" = type { %"class.facebook::velox::ScalarType.base.43", %"class.std::vector" }
%"class.facebook::velox::ScalarType.base.43" = type { %"class.facebook::velox::TypeBase.base.42" }
%"class.facebook::velox::TypeBase.base.42" = type { %"class.facebook::velox::Type.base" }
%"struct.std::_Optional_payload_base.136" = type <{ %"union.std::_Optional_payload_base<long>::_Storage", i8, [7 x i8] }>

@_ZTIN8facebook5velox16ShortDecimalTypeE = linkonce_odr constant { ptr, ptr, ptr } { ptr getelementptr inbounds (ptr, ptr @_ZTVN10__cxxabiv120__si_class_type_infoE, i64 2), ptr @_ZTSN8facebook5velox16ShortDecimalTypeE, ptr @_ZTIN8facebook5velox11DecimalTypeILNS0_8TypeKindE4EEE }, comdat, align 8
@_ZTIN8facebook5velox15LongDecimalTypeE = linkonce_odr constant { ptr, ptr, ptr } { ptr getelementptr inbounds (ptr, ptr @_ZTVN10__cxxabiv120__si_class_type_infoE, i64 2), ptr @_ZTSN8facebook5velox15LongDecimalTypeE, ptr @_ZTIN8facebook5velox11DecimalTypeILNS0_8TypeKindE10EEE }, comdat, align 8

; Function Attrs: mustprogress nounwind uwtable
define linkonce_odr noundef nonnull align 8 dereferenceable(8) ptr @_ZNKSt22_Optional_payload_baseIlE6_M_getEv(ptr noundef nonnull align 8 dereferenceable(9) %this) #2 comdat align 2 {
entry:
  %this.addr = alloca ptr, align 8
  store ptr %this, ptr %this.addr, align 8
  %this1 = load ptr, ptr %this.addr, align 8
  %_M_payload = getelementptr inbounds %"struct.std::_Optional_payload_base.136", ptr %this1, i32 0, i32 0
  ret ptr %_M_payload
}

; Function Attrs: mustprogress nounwind uwtable
define linkonce_odr noundef nonnull align 8 dereferenceable(8) ptr @_ZNKSt19_Optional_base_implIlSt14_Optional_baseIlLb1ELb1EEE6_M_getEv(ptr noundef nonnull align 1 dereferenceable(1) %this) #2 comdat align 2 {
entry:
  %this.addr = alloca ptr, align 8
  store ptr %this, ptr %this.addr, align 8
  %this1 = load ptr, ptr %this.addr, align 8
  br label %do.body

do.body:                                          ; preds = %entry
  br label %do.cond

do.cond:                                          ; preds = %do.body
  br label %do.end

do.end:                                           ; preds = %do.cond
  %_M_payload = getelementptr inbounds %"struct.std::_Optional_base.133", ptr %this1, i32 0, i32 0
  %call = call noundef nonnull align 8 dereferenceable(8) ptr @_ZNKSt22_Optional_payload_baseIlE6_M_getEv(ptr noundef nonnull align 8 dereferenceable(9) %_M_payload) #1
  ret ptr %call
}

; Function Attrs: mustprogress nounwind uwtable
define linkonce_odr noundef zeroext i1 @_ZNKSt19_Optional_base_implIlSt14_Optional_baseIlLb1ELb1EEE13_M_is_engagedEv(ptr noundef nonnull align 1 dereferenceable(1) %this) #2 comdat align 2 {
entry:
  %this.addr = alloca ptr, align 8
  store ptr %this, ptr %this.addr, align 8
  %this1 = load ptr, ptr %this.addr, align 8
  %_M_payload = getelementptr inbounds %"struct.std::_Optional_base.133", ptr %this1, i32 0, i32 0
  %_M_engaged = getelementptr inbounds %"struct.std::_Optional_payload_base.136", ptr %_M_payload, i32 0, i32 1
  %0 = load i8, ptr %_M_engaged, align 8
  %tobool = trunc i8 %0 to i1
  ret i1 %tobool
}

; Function Attrs: mustprogress uwtable
define linkonce_odr noundef nonnull align 8 dereferenceable(8) ptr @_ZNKRSt8optionalIlE5valueEv(ptr noundef nonnull align 8 dereferenceable(16) %this) #0 comdat align 2 {
entry:
  %this.addr = alloca ptr, align 8
  store ptr %this, ptr %this.addr, align 8
  %this1 = load ptr, ptr %this.addr, align 8
  %call = call noundef zeroext i1 @_ZNKSt19_Optional_base_implIlSt14_Optional_baseIlLb1ELb1EEE13_M_is_engagedEv(ptr noundef nonnull align 1 dereferenceable(1) %this1) #1
  br i1 %call, label %if.then, label %if.end

if.then:                                          ; preds = %entry
  %call2 = call noundef nonnull align 8 dereferenceable(8) ptr @_ZNKSt19_Optional_base_implIlSt14_Optional_baseIlLb1ELb1EEE6_M_getEv(ptr noundef nonnull align 1 dereferenceable(1) %this1) #1
  ret ptr %call2

if.end:                                           ; preds = %entry
  call void @_ZSt27__throw_bad_optional_accessv() #30
  unreachable
}

; Function Attrs: mustprogress nounwind uwtable
define linkonce_odr noundef nonnull align 8 dereferenceable(40) ptr @_ZNKSt6vectorIN8facebook5velox13TypeParameterESaIS2_EEixEm(ptr noundef nonnull align 8 dereferenceable(24) %this, i64 noundef %__n) #2 comdat align 2 {
entry:
  %this.addr = alloca ptr, align 8
  %__n.addr = alloca i64, align 8
  store ptr %this, ptr %this.addr, align 8
  store i64 %__n, ptr %__n.addr, align 8
  %this1 = load ptr, ptr %this.addr, align 8
  %_M_impl = getelementptr inbounds %"struct.std::_Vector_base", ptr %this1, i32 0, i32 0
  %_M_start = getelementptr inbounds %"struct.std::_Vector_base<facebook::velox::TypeParameter, std::allocator<facebook::velox::TypeParameter>>::_Vector_impl_data", ptr %_M_impl, i32 0, i32 0
  %0 = load ptr, ptr %_M_start, align 8
  %1 = load i64, ptr %__n.addr, align 8
  %add.ptr = getelementptr inbounds %"struct.facebook::velox::TypeParameter", ptr %0, i64 %1
  ret ptr %add.ptr
}

; Function Attrs: mustprogress uwtable
define linkonce_odr noundef zeroext i8 @_ZNK8facebook5velox11DecimalTypeILNS0_8TypeKindE10EE5scaleEv(ptr noundef nonnull align 8 dereferenceable(48) %this) #0 comdat align 2 {
entry:
  %this.addr = alloca ptr, align 8
  store ptr %this, ptr %this.addr, align 8
  %this1 = load ptr, ptr %this.addr, align 8
  %parameters_ = getelementptr inbounds %"class.facebook::velox::DecimalType.39", ptr %this1, i32 0, i32 1
  %call = call noundef nonnull align 8 dereferenceable(40) ptr @_ZNKSt6vectorIN8facebook5velox13TypeParameterESaIS2_EEixEm(ptr noundef nonnull align 8 dereferenceable(24) %parameters_, i64 noundef 1) #1
  %longLiteral = getelementptr inbounds %"struct.facebook::velox::TypeParameter", ptr %call, i32 0, i32 2
  %call2 = call noundef nonnull align 8 dereferenceable(8) ptr @_ZNKRSt8optionalIlE5valueEv(ptr noundef nonnull align 8 dereferenceable(16) %longLiteral)
  %0 = load i64, ptr %call2, align 8
  %conv = trunc i64 %0 to i8
  ret i8 %conv
}

; Function Attrs: mustprogress uwtable
define linkonce_odr noundef zeroext i8 @_ZNK8facebook5velox11DecimalTypeILNS0_8TypeKindE10EE9precisionEv(ptr noundef nonnull align 8 dereferenceable(48) %this) #0 comdat align 2 {
entry:
  %this.addr = alloca ptr, align 8
  store ptr %this, ptr %this.addr, align 8
  %this1 = load ptr, ptr %this.addr, align 8
  %parameters_ = getelementptr inbounds %"class.facebook::velox::DecimalType.39", ptr %this1, i32 0, i32 1
  %call = call noundef nonnull align 8 dereferenceable(40) ptr @_ZNKSt6vectorIN8facebook5velox13TypeParameterESaIS2_EEixEm(ptr noundef nonnull align 8 dereferenceable(24) %parameters_, i64 noundef 0) #1
  %longLiteral = getelementptr inbounds %"struct.facebook::velox::TypeParameter", ptr %call, i32 0, i32 2
  %call2 = call noundef nonnull align 8 dereferenceable(8) ptr @_ZNKRSt8optionalIlE5valueEv(ptr noundef nonnull align 8 dereferenceable(16) %longLiteral)
  %0 = load i64, ptr %call2, align 8
  %conv = trunc i64 %0 to i8
  ret i8 %conv
}

; Function Attrs: mustprogress nounwind uwtable
define linkonce_odr void @_ZNSt4pairIiiEC2IhhTnNSt9enable_ifIXaaclsr5_PCCPE22_MoveConstructiblePairIT_T0_EEclsr5_PCCPE30_ImplicitlyMoveConvertiblePairIS3_S4_EEEbE4typeELb1EEEOS3_OS4_(ptr noundef nonnull align 4 dereferenceable(8) %this, ptr noundef nonnull align 1 dereferenceable(1) %__x, ptr noundef nonnull align 1 dereferenceable(1) %__y) unnamed_addr #2 comdat align 2 {
entry:
  %this.addr = alloca ptr, align 8
  %__x.addr = alloca ptr, align 8
  %__y.addr = alloca ptr, align 8
  store ptr %this, ptr %this.addr, align 8
  store ptr %__x, ptr %__x.addr, align 8
  store ptr %__y, ptr %__y.addr, align 8
  %this1 = load ptr, ptr %this.addr, align 8
  %first = getelementptr inbounds %"struct.std::pair.34", ptr %this1, i32 0, i32 0
  %0 = load ptr, ptr %__x.addr, align 8
  %1 = load i8, ptr %0, align 1
  %conv = zext i8 %1 to i32
  store i32 %conv, ptr %first, align 4
  %second = getelementptr inbounds %"struct.std::pair.34", ptr %this1, i32 0, i32 1
  %2 = load ptr, ptr %__y.addr, align 8
  %3 = load i8, ptr %2, align 1
  %conv2 = zext i8 %3 to i32
  store i32 %conv2, ptr %second, align 4
  ret void
}

; Function Attrs: mustprogress uwtable
define linkonce_odr noundef zeroext i8 @_ZNK8facebook5velox11DecimalTypeILNS0_8TypeKindE4EE5scaleEv(ptr noundef nonnull align 8 dereferenceable(48) %this) #0 comdat align 2 {
entry:
  %this.addr = alloca ptr, align 8
  store ptr %this, ptr %this.addr, align 8
  %this1 = load ptr, ptr %this.addr, align 8
  %parameters_ = getelementptr inbounds %"class.facebook::velox::DecimalType", ptr %this1, i32 0, i32 1
  %call = call noundef nonnull align 8 dereferenceable(40) ptr @_ZNKSt6vectorIN8facebook5velox13TypeParameterESaIS2_EEixEm(ptr noundef nonnull align 8 dereferenceable(24) %parameters_, i64 noundef 1) #1
  %longLiteral = getelementptr inbounds %"struct.facebook::velox::TypeParameter", ptr %call, i32 0, i32 2
  %call2 = call noundef nonnull align 8 dereferenceable(8) ptr @_ZNKRSt8optionalIlE5valueEv(ptr noundef nonnull align 8 dereferenceable(16) %longLiteral)
  %0 = load i64, ptr %call2, align 8
  %conv = trunc i64 %0 to i8
  ret i8 %conv
}

; Function Attrs: mustprogress uwtable
define linkonce_odr noundef zeroext i8 @_ZNK8facebook5velox11DecimalTypeILNS0_8TypeKindE4EE9precisionEv(ptr noundef nonnull align 8 dereferenceable(48) %this) #0 comdat align 2 {
entry:
  %this.addr = alloca ptr, align 8
  store ptr %this, ptr %this.addr, align 8
  %this1 = load ptr, ptr %this.addr, align 8
  %parameters_ = getelementptr inbounds %"class.facebook::velox::DecimalType", ptr %this1, i32 0, i32 1
  %call = call noundef nonnull align 8 dereferenceable(40) ptr @_ZNKSt6vectorIN8facebook5velox13TypeParameterESaIS2_EEixEm(ptr noundef nonnull align 8 dereferenceable(24) %parameters_, i64 noundef 0) #1
  %longLiteral = getelementptr inbounds %"struct.facebook::velox::TypeParameter", ptr %call, i32 0, i32 2
  %call2 = call noundef nonnull align 8 dereferenceable(8) ptr @_ZNKRSt8optionalIlE5valueEv(ptr noundef nonnull align 8 dereferenceable(16) %longLiteral)
  %0 = load i64, ptr %call2, align 8
  %conv = trunc i64 %0 to i8
  ret i8 %conv
}

; Function Attrs: mustprogress uwtable
define i64 @_ZN8facebook5velox24getDecimalPrecisionScaleERKNS0_4TypeE(ptr noundef nonnull align 8 dereferenceable(17) %type) #0 {
entry:
  %this.addr.i12 = alloca ptr, align 8
  %this.addr.i = alloca ptr, align 8
  %retval = alloca %"struct.std::pair.34", align 4
  %type.addr = alloca ptr, align 8
  %decimalType = alloca ptr, align 8
  %ref.tmp = alloca i8, align 1
  %ref.tmp2 = alloca i8, align 1
  %decimalType6 = alloca ptr, align 8
  %ref.tmp7 = alloca i8, align 1
  %ref.tmp9 = alloca i8, align 1
  store ptr %type, ptr %type.addr, align 8
  %0 = load ptr, ptr %type.addr, align 8
  store ptr %0, ptr %this.addr.i, align 8
  %this1.i = load ptr, ptr %this.addr.i, align 8
  %1 = icmp eq ptr %this1.i, null
  br i1 %1, label %dynamic_cast.null.i, label %dynamic_cast.notnull.i

dynamic_cast.notnull.i:                           ; preds = %entry
  %2 = call ptr @__dynamic_cast(ptr %this1.i, ptr @_ZTIN8facebook5velox4TypeE, ptr @_ZTIN8facebook5velox16ShortDecimalTypeE, i64 0) #1
  br label %_ZNK8facebook5velox4Type14isShortDecimalEv.exit

dynamic_cast.null.i:                              ; preds = %entry
  br label %_ZNK8facebook5velox4Type14isShortDecimalEv.exit

_ZNK8facebook5velox4Type14isShortDecimalEv.exit:  ; preds = %dynamic_cast.null.i, %dynamic_cast.notnull.i
  %3 = phi ptr [ %2, %dynamic_cast.notnull.i ], [ null, %dynamic_cast.null.i ]
  %cmp.i = icmp ne ptr %3, null
  br i1 %cmp.i, label %if.then, label %if.else

if.then:                                          ; preds = %_ZNK8facebook5velox4Type14isShortDecimalEv.exit
  %4 = load ptr, ptr %type.addr, align 8
  store ptr %4, ptr %decimalType, align 8
  %5 = load ptr, ptr %decimalType, align 8
  %call1 = call noundef zeroext i8 @_ZNK8facebook5velox11DecimalTypeILNS0_8TypeKindE4EE9precisionEv(ptr noundef nonnull align 8 dereferenceable(48) %5)
  store i8 %call1, ptr %ref.tmp, align 1
  %6 = load ptr, ptr %decimalType, align 8
  %call3 = call noundef zeroext i8 @_ZNK8facebook5velox11DecimalTypeILNS0_8TypeKindE4EE5scaleEv(ptr noundef nonnull align 8 dereferenceable(48) %6)
  store i8 %call3, ptr %ref.tmp2, align 1
  call void @_ZNSt4pairIiiEC2IhhTnNSt9enable_ifIXaaclsr5_PCCPE22_MoveConstructiblePairIT_T0_EEclsr5_PCCPE30_ImplicitlyMoveConvertiblePairIS3_S4_EEEbE4typeELb1EEEOS3_OS4_(ptr noundef nonnull align 4 dereferenceable(8) %retval, ptr noundef nonnull align 1 dereferenceable(1) %ref.tmp, ptr noundef nonnull align 1 dereferenceable(1) %ref.tmp2)
  br label %return

if.else:                                          ; preds = %_ZNK8facebook5velox4Type14isShortDecimalEv.exit
  %7 = load ptr, ptr %type.addr, align 8
  store ptr %7, ptr %this.addr.i12, align 8
  %this1.i13 = load ptr, ptr %this.addr.i12, align 8
  %8 = icmp eq ptr %this1.i13, null
  br i1 %8, label %dynamic_cast.null.i16, label %dynamic_cast.notnull.i14

dynamic_cast.notnull.i14:                         ; preds = %if.else
  %9 = call ptr @__dynamic_cast(ptr %this1.i13, ptr @_ZTIN8facebook5velox4TypeE, ptr @_ZTIN8facebook5velox15LongDecimalTypeE, i64 0) #1
  br label %_ZNK8facebook5velox4Type13isLongDecimalEv.exit

dynamic_cast.null.i16:                            ; preds = %if.else
  br label %_ZNK8facebook5velox4Type13isLongDecimalEv.exit

_ZNK8facebook5velox4Type13isLongDecimalEv.exit:   ; preds = %dynamic_cast.null.i16, %dynamic_cast.notnull.i14
  %10 = phi ptr [ %9, %dynamic_cast.notnull.i14 ], [ null, %dynamic_cast.null.i16 ]
  %cmp.i15 = icmp ne ptr %10, null
  br i1 %cmp.i15, label %if.then5, label %if.end

if.then5:                                         ; preds = %_ZNK8facebook5velox4Type13isLongDecimalEv.exit
  %11 = load ptr, ptr %type.addr, align 8
  store ptr %11, ptr %decimalType6, align 8
  %12 = load ptr, ptr %decimalType6, align 8
  %call8 = call noundef zeroext i8 @_ZNK8facebook5velox11DecimalTypeILNS0_8TypeKindE10EE9precisionEv(ptr noundef nonnull align 8 dereferenceable(48) %12)
  store i8 %call8, ptr %ref.tmp7, align 1
  %13 = load ptr, ptr %decimalType6, align 8
  %call10 = call noundef zeroext i8 @_ZNK8facebook5velox11DecimalTypeILNS0_8TypeKindE10EE5scaleEv(ptr noundef nonnull align 8 dereferenceable(48) %13)
  store i8 %call10, ptr %ref.tmp9, align 1
  call void @_ZNSt4pairIiiEC2IhhTnNSt9enable_ifIXaaclsr5_PCCPE22_MoveConstructiblePairIT_T0_EEclsr5_PCCPE30_ImplicitlyMoveConvertiblePairIS3_S4_EEEbE4typeELb1EEEOS3_OS4_(ptr noundef nonnull align 4 dereferenceable(8) %retval, ptr noundef nonnull align 1 dereferenceable(1) %ref.tmp7, ptr noundef nonnull align 1 dereferenceable(1) %ref.tmp9)
  br label %return

if.end:                                           ; preds = %_ZNK8facebook5velox4Type13isLongDecimalEv.exit
  br label %if.end11

if.end11:                                         ; preds = %if.end
  call void @llvm.trap()
  call void @llvm.trap()
  unreachable

return:                                           ; preds = %if.then5, %if.then
  %14 = load i64, ptr %retval, align 4
  ret i64 %14
}