; Function Attrs: mustprogress uwtable
define i64 @_ZN8facebook5velox24getDecimalPrecisionScaleERKNS0_4TypeE(ptr noundef nonnull readonly align 8 dereferenceable(17) %type) local_unnamed_addr #0 {
entry:
  %0 = tail call ptr @__dynamic_cast(ptr nonnull %type, ptr nonnull @_ZTIN8facebook5velox4TypeE, ptr nonnull @_ZTIN8facebook5velox16ShortDecimalTypeE, i64 0) #37
  %cmp.i.not = icmp eq ptr %0, null
  br i1 %cmp.i.not, label %dynamic_cast.notnull.i14, label %if.then

if.then:                                          ; preds = %entry
  %parameters_.i = getelementptr inbounds i8, ptr %type, i64 24
  %1 = load ptr, ptr %parameters_.i, align 8
  %_M_engaged.i.i.i = getelementptr inbounds i8, ptr %1, i64 32
  %2 = load i8, ptr %_M_engaged.i.i.i, align 8
  %3 = and i8 %2, 1
  %tobool.i.not.i.i = icmp eq i8 %3, 0
  br i1 %tobool.i.not.i.i, label %if.end.i.i, label %_ZNK8facebook5velox11DecimalTypeILNS0_8TypeKindE4EE9precisionEv.exit

if.end.i.i:                                       ; preds = %if.then
  tail call void @_ZSt27__throw_bad_optional_accessv() #39
  unreachable

_ZNK8facebook5velox11DecimalTypeILNS0_8TypeKindE4EE9precisionEv.exit: ; preds = %if.then
  %_M_engaged.i.i.i7 = getelementptr inbounds i8, ptr %1, i64 72
  %4 = load i8, ptr %_M_engaged.i.i.i7, align 8
  %5 = and i8 %4, 1
  %tobool.i.not.i.i8 = icmp eq i8 %5, 0
  br i1 %tobool.i.not.i.i8, label %if.end.i.i11, label %return

if.end.i.i11:                                     ; preds = %_ZNK8facebook5velox11DecimalTypeILNS0_8TypeKindE4EE9precisionEv.exit
  tail call void @_ZSt27__throw_bad_optional_accessv() #39
  unreachable

dynamic_cast.notnull.i14:                         ; preds = %entry
  %6 = tail call ptr @__dynamic_cast(ptr nonnull %type, ptr nonnull @_ZTIN8facebook5velox4TypeE, ptr nonnull @_ZTIN8facebook5velox15LongDecimalTypeE, i64 0) #37
  %cmp.i15.not = icmp eq ptr %6, null
  br i1 %cmp.i15.not, label %if.end11, label %if.then5

if.then5:                                         ; preds = %dynamic_cast.notnull.i14
  %parameters_.i13 = getelementptr inbounds i8, ptr %type, i64 24
  %7 = load ptr, ptr %parameters_.i13, align 8
  %_M_engaged.i.i.i14 = getelementptr inbounds i8, ptr %7, i64 32
  %8 = load i8, ptr %_M_engaged.i.i.i14, align 8
  %9 = and i8 %8, 1
  %tobool.i.not.i.i15 = icmp eq i8 %9, 0
  br i1 %tobool.i.not.i.i15, label %if.end.i.i18, label %_ZNK8facebook5velox11DecimalTypeILNS0_8TypeKindE10EE9precisionEv.exit

if.end.i.i18:                                     ; preds = %if.then5
  tail call void @_ZSt27__throw_bad_optional_accessv() #39
  unreachable

_ZNK8facebook5velox11DecimalTypeILNS0_8TypeKindE10EE9precisionEv.exit: ; preds = %if.then5
  %_M_engaged.i.i.i20 = getelementptr inbounds i8, ptr %7, i64 72
  %10 = load i8, ptr %_M_engaged.i.i.i20, align 8
  %11 = and i8 %10, 1
  %tobool.i.not.i.i21 = icmp eq i8 %11, 0
  br i1 %tobool.i.not.i.i21, label %if.end.i.i24, label %return

if.end.i.i24:                                     ; preds = %_ZNK8facebook5velox11DecimalTypeILNS0_8TypeKindE10EE9precisionEv.exit
  tail call void @_ZSt27__throw_bad_optional_accessv() #39
  unreachable

if.end11:                                         ; preds = %dynamic_cast.notnull.i14
  tail call void @llvm.trap()
  unreachable

return:                                           ; preds = %_ZNK8facebook5velox11DecimalTypeILNS0_8TypeKindE10EE9precisionEv.exit, %_ZNK8facebook5velox11DecimalTypeILNS0_8TypeKindE4EE9precisionEv.exit
  %.pn = phi ptr [ %1, %_ZNK8facebook5velox11DecimalTypeILNS0_8TypeKindE4EE9precisionEv.exit ], [ %7, %_ZNK8facebook5velox11DecimalTypeILNS0_8TypeKindE10EE9precisionEv.exit ]
  %retval.sroa.3.0.in.in.in = getelementptr inbounds i8, ptr %.pn, i64 64
  %retval.sroa.3.0.in.in = load i64, ptr %retval.sroa.3.0.in.in.in, align 8
  %retval.sroa.0.0.in.in.in = getelementptr inbounds i8, ptr %.pn, i64 24
  %retval.sroa.0.0.in.in = load i64, ptr %retval.sroa.0.0.in.in.in, align 8
  %retval.sroa.0.0 = and i64 %retval.sroa.0.0.in.in, 255
  %retval.sroa.3.0 = shl i64 %retval.sroa.3.0.in.in, 32
  %retval.sroa.3.0.insert.shift = and i64 %retval.sroa.3.0, 1095216660480
  %retval.sroa.0.0.insert.insert = or disjoint i64 %retval.sroa.3.0.insert.shift, %retval.sroa.0.0
  ret i64 %retval.sroa.0.0.insert.insert
}